; Function Attrs: mustprogress nounwind uwtable
define void @_ZN6casadi20SharedObjectInternalD2Ev(ptr nocapture noundef nonnull align 8 dereferenceable(24) %0) unnamed_addr #5 align 2 personality ptr @__gxx_personality_v0 {
  store ptr getelementptr inbounds ({ [6 x ptr] }, ptr @_ZTVN6casadi20SharedObjectInternalE, i64 0, i32 0, i64 2), ptr %0, align 8
  %2 = getelementptr inbounds i8, ptr %0, i64 16
  %3 = load ptr, ptr %2, align 8
  %.not = icmp eq ptr %3, null
  br i1 %.not, label %9, label %4

4:                                                ; preds = %1
  invoke void @_ZN6casadi7WeakRef4killEv(ptr noundef nonnull align 8 dereferenceable(8) %3)
          to label %5 unwind label %10

5:                                                ; preds = %4
  %6 = load ptr, ptr %2, align 8
  %7 = icmp eq ptr %6, null
  br i1 %7, label %9, label %8

8:                                                ; preds = %5
  tail call void @_ZN6casadi12SharedObjectD2Ev(ptr noundef nonnull align 8 dereferenceable(8) %6) #15
  tail call void @_ZdlPv(ptr noundef nonnull %6) #16
  br label %9

9:                                                ; preds = %5, %8, %1
  ret void

10:                                               ; preds = %4
  %11 = landingpad { ptr, i32 }
          catch ptr null
  %12 = extractvalue { ptr, i32 } %11, 0
  tail call void @__clang_call_terminate(ptr %12) #17
  unreachable
}